; Function Attrs: mustprogress uwtable
define internal fastcc noundef ptr @_ZN8nanobind6detailL18enum_get_type_dataENS_6handleE(ptr %0) unnamed_addr #7 personality ptr @__gxx_personality_v0 {
  %2 = alloca %"class.nanobind::capsule", align 8
  %3 = alloca %"class.nanobind::detail::accessor", align 8
  call void @llvm.lifetime.start.p0(i64 8, ptr nonnull %2) #21
  call void @llvm.lifetime.start.p0(i64 24, ptr nonnull %3) #21
  store ptr %0, ptr %3, align 8, !alias.scope !136
  %4 = getelementptr inbounds nuw i8, ptr %3, i64 8
  store ptr null, ptr %4, align 8, !alias.scope !136
  %5 = getelementptr inbounds nuw i8, ptr %3, i64 16
  store ptr @.str.15, ptr %5, align 8, !alias.scope !136
  invoke void @_ZN8nanobind6detail16getattr_or_raiseEP7_objectPKcPS2_(ptr noundef %0, ptr noundef nonnull @.str.15, ptr noundef nonnull %4)
          to label %6 unwind label %28

6:                                                ; preds = %1
  %7 = load ptr, ptr %4, align 8
  store ptr %7, ptr %2, align 8
  %.not.i.i.i = icmp eq ptr %7, null
  br i1 %.not.i.i.i, label %_ZN8nanobind6objectC2ENS_6handleENS_6detail8borrow_tE.exit, label %8

8:                                                ; preds = %6
  %9 = load i64, ptr %7, align 8
  %10 = add nsw i64 %9, 1
  store i64 %10, ptr %7, align 8
  br label %_ZN8nanobind6objectC2ENS_6handleENS_6detail8borrow_tE.exit

_ZN8nanobind6objectC2ENS_6handleENS_6detail8borrow_tE.exit: ; preds = %8, %6
  %11 = invoke noundef ptr @PyCapsule_GetName(ptr noundef %7)
          to label %.noexc unwind label %30

.noexc:                                           ; preds = %_ZN8nanobind6objectC2ENS_6handleENS_6detail8borrow_tE.exit
  %12 = invoke noundef ptr @PyCapsule_GetPointer(ptr noundef %7, ptr noundef %11)
          to label %_ZNK8nanobind7capsule4dataEv.exit unwind label %30

_ZNK8nanobind7capsule4dataEv.exit:                ; preds = %.noexc
  br i1 %.not.i.i.i, label %_ZN8nanobind6objectD2Ev.exit, label %13

13:                                               ; preds = %_ZNK8nanobind7capsule4dataEv.exit
  %14 = load i64, ptr %7, align 8
  %15 = add nsw i64 %14, -1
  store i64 %15, ptr %7, align 8
  %.not.i.i.i.i = icmp eq i64 %15, 0
  br i1 %.not.i.i.i.i, label %16, label %_ZN8nanobind6objectD2Ev.exit

16:                                               ; preds = %13
  invoke void @_Py_Dealloc(ptr noundef nonnull %7)
          to label %_ZN8nanobind6objectD2Ev.exit unwind label %17

17:                                               ; preds = %16
  %18 = landingpad { ptr, i32 }
          catch ptr null
  %19 = extractvalue { ptr, i32 } %18, 0
  call void @__clang_call_terminate(ptr %19) #22
  unreachable

_ZN8nanobind6objectD2Ev.exit:                     ; preds = %_ZNK8nanobind7capsule4dataEv.exit, %13, %16
  %20 = load ptr, ptr %4, align 8
  %.not.i.i = icmp eq ptr %20, null
  br i1 %.not.i.i, label %_ZN8nanobind6detail8accessorINS0_8str_attrEED2Ev.exit, label %21

21:                                               ; preds = %_ZN8nanobind6objectD2Ev.exit
  %22 = load i64, ptr %20, align 8
  %23 = add nsw i64 %22, -1
  store i64 %23, ptr %20, align 8
  %.not.i.i.i6 = icmp eq i64 %23, 0
  br i1 %.not.i.i.i6, label %24, label %_ZN8nanobind6detail8accessorINS0_8str_attrEED2Ev.exit

24:                                               ; preds = %21
  invoke void @_Py_Dealloc(ptr noundef nonnull %20)
          to label %_ZN8nanobind6detail8accessorINS0_8str_attrEED2Ev.exit unwind label %25

25:                                               ; preds = %24
  %26 = landingpad { ptr, i32 }
          catch ptr null
  %27 = extractvalue { ptr, i32 } %26, 0
  call void @__clang_call_terminate(ptr %27) #22
  unreachable

_ZN8nanobind6detail8accessorINS0_8str_attrEED2Ev.exit: ; preds = %_ZN8nanobind6objectD2Ev.exit, %21, %24
  call void @llvm.lifetime.end.p0(i64 24, ptr nonnull %3) #21
  call void @llvm.lifetime.end.p0(i64 8, ptr nonnull %2) #21
  ret ptr %12

28:                                               ; preds = %1
  %29 = landingpad { ptr, i32 }
          cleanup
  br label %32

30:                                               ; preds = %.noexc, %_ZN8nanobind6objectC2ENS_6handleENS_6detail8borrow_tE.exit
  %31 = landingpad { ptr, i32 }
          cleanup
  call void @_ZN8nanobind6objectD2Ev(ptr noundef nonnull align 8 dereferenceable(8) %2) #21
  br label %32

32:                                               ; preds = %30, %28
  %.pn = phi { ptr, i32 } [ %31, %30 ], [ %29, %28 ]
  call void @_ZN8nanobind6detail8accessorINS0_8str_attrEED2Ev(ptr noundef nonnull align 8 dereferenceable(24) %3) #21
  call void @llvm.lifetime.end.p0(i64 24, ptr nonnull %3) #21
  call void @llvm.lifetime.end.p0(i64 8, ptr nonnull %2) #21
  resume { ptr, i32 } %.pn
}